libpeercoinconsensus.so.0:AES128_decrypt
libpeercoinconsensus.so.0:AES128_encrypt
libpeercoinconsensus.so.0:AES128_init
libpeercoinconsensus.so.0:AES192_decrypt
libpeercoinconsensus.so.0:AES192_encrypt
libpeercoinconsensus.so.0:AES192_init
libpeercoinconsensus.so.0:AES256_decrypt
libpeercoinconsensus.so.0:AES256_encrypt
libpeercoinconsensus.so.0:AES256_init
libpeercoinconsensus.so.0:_Z10CastToBoolRKSt6vectorIhSaIhEE
libpeercoinconsensus.so.0:_Z10EvalScriptRSt6vectorIS_IhSaIhEESaIS1_EERK7CScriptjRK20BaseSignatureChecker10SigVersionP13ScriptError_t
libpeercoinconsensus.so.0:_Z10ParseInt32RKNSt7__cxx1112basic_stringIcSt11char_traitsIcESaIcEEEPi
libpeercoinconsensus.so.0:_Z10ParseInt64RKNSt7__cxx1112basic_stringIcSt11char_traitsIcESaIcEEEPl
libpeercoinconsensus.so.0:_Z11IsHexNumberRKNSt7__cxx1112basic_stringIcSt11char_traitsIcESaIcEEE
libpeercoinconsensus.so.0:_Z11MurmurHash3jRKSt6vectorIhSaIhEE
libpeercoinconsensus.so.0:_Z11ParseDoubleRKNSt7__cxx1112basic_stringIcSt11char_traitsIcESaIcEEEPd
libpeercoinconsensus.so.0:_Z11ParseUInt32RKNSt7__cxx1112basic_stringIcSt11char_traitsIcESaIcEEEPj
libpeercoinconsensus.so.0:_Z11ParseUInt64RKNSt7__cxx1112basic_stringIcSt11char_traitsIcESaIcEEEPm
libpeercoinconsensus.so.0:_Z12DecodeBase32PKcPb
libpeercoinconsensus.so.0:_Z12DecodeBase32RKNSt7__cxx1112basic_stringIcSt11char_traitsIcESaIcEEE
libpeercoinconsensus.so.0:_Z12DecodeBase64PKcPb
libpeercoinconsensus.so.0:_Z12DecodeBase64RKNSt7__cxx1112basic_stringIcSt11char_traitsIcESaIcEEE
libpeercoinconsensus.so.0:_Z12EncodeBase32B5cxx11PKhm
libpeercoinconsensus.so.0:_Z12EncodeBase32RKNSt7__cxx1112basic_stringIcSt11char_traitsIcESaIcEEE
libpeercoinconsensus.so.0:_Z12EncodeBase64B5cxx11PKhm
libpeercoinconsensus.so.0:_Z12EncodeBase64RKNSt7__cxx1112basic_stringIcSt11char_traitsIcESaIcEEE
libpeercoinconsensus.so.0:_Z12VerifyScriptRK7CScriptS1_PK14CScriptWitnessjRK20BaseSignatureCheckerP13ScriptError_t
libpeercoinconsensus.so.0:_Z13SignatureHashRK7CScriptRK12CTransactionjiRKl10SigVersionPK26PrecomputedTransactionData
libpeercoinconsensus.so.0:_Z13SplitHostPortNSt7__cxx1112basic_stringIcSt11char_traitsIcESaIcEEERiRS4_
libpeercoinconsensus.so.0:_Z14ArithToUint256RK13arith_uint256
libpeercoinconsensus.so.0:_Z14SanitizeStringRKNSt7__cxx1112basic_stringIcSt11char_traitsIcESaIcEEEi
libpeercoinconsensus.so.0:_Z14SipHashUint256mmRK7uint256
libpeercoinconsensus.so.0:_Z14UintToArith256RK7uint256
libpeercoinconsensus.so.0:_Z15BlockMerkleRootRK6CBlockPb
libpeercoinconsensus.so.0:_Z15FormatParagraphRKNSt7__cxx1112basic_stringIcSt11char_traitsIcESaIcEEEmm
libpeercoinconsensus.so.0:_Z15GetAdjustedTimev
libpeercoinconsensus.so.0:_Z15ParseFixedPointRKNSt7__cxx1112basic_stringIcSt11char_traitsIcESaIcEEEiPl
libpeercoinconsensus.so.0:_Z16SHA256AutoDetectB5cxx11v
libpeercoinconsensus.so.0:_Z17BlockMerkleBranchRK6CBlockj
libpeercoinconsensus.so.0:_Z17ComputeMerkleRootRKSt6vectorI7uint256SaIS0_EEPb
libpeercoinconsensus.so.0:_Z17ScriptErrorString13ScriptError_t
libpeercoinconsensus.so.0:_Z18CountWitnessSigOpsRK7CScriptS1_PK14CScriptWitnessj
libpeercoinconsensus.so.0:_Z19ComputeMerkleBranchRKSt6vectorI7uint256SaIS0_EEj
libpeercoinconsensus.so.0:_Z19SipHashUint256ExtrammRK7uint256j
libpeercoinconsensus.so.0:_Z22BlockWitnessMerkleRootRK6CBlockPb
libpeercoinconsensus.so.0:_Z22CheckSignatureEncodingRKSt6vectorIhSaIhEEjP13ScriptError_t
libpeercoinconsensus.so.0:_Z27ComputeMerkleRootFromBranchRK7uint256RKSt6vectorIS_SaIS_EEj
libpeercoinconsensus.so.0:_Z4atoiRKNSt7__cxx1112basic_stringIcSt11char_traitsIcESaIcEEE
libpeercoinconsensus.so.0:_Z5IsHexRKNSt7__cxx1112basic_stringIcSt11char_traitsIcESaIcEEE
libpeercoinconsensus.so.0:_Z6atoi64PKc
libpeercoinconsensus.so.0:_Z6atoi64RKNSt7__cxx1112basic_stringIcSt11char_traitsIcESaIcEEE
libpeercoinconsensus.so.0:_Z6itostrB5cxx11i
libpeercoinconsensus.so.0:_Z8HexDigitc
libpeercoinconsensus.so.0:_Z8ParseHexPKc
libpeercoinconsensus.so.0:_Z8ParseHexRKNSt7__cxx1112basic_stringIcSt11char_traitsIcESaIcEEE
libpeercoinconsensus.so.0:_Z8i64tostrB5cxx11l
libpeercoinconsensus.so.0:_Z8univHashRK7uint256
libpeercoinconsensus.so.0:_Z9BIP32HashRK7uint256jhPKhPh
libpeercoinconsensus.so.0:_Z9GetOpName10opcodetype
libpeercoinconsensus.so.0:_ZN10CExtPubKey6DecodeEPKh
libpeercoinconsensus.so.0:_ZN10CRIPEMD1605ResetEv
libpeercoinconsensus.so.0:_ZN10CRIPEMD1605WriteEPKhm
libpeercoinconsensus.so.0:_ZN10CRIPEMD1608FinalizeEPh
libpeercoinconsensus.so.0:_ZN10CRIPEMD160C1Ev
libpeercoinconsensus.so.0:_ZN10CRIPEMD160C2Ev
libpeercoinconsensus.so.0:_ZN10CSipHasher5WriteEPKhm
libpeercoinconsensus.so.0:_ZN10CSipHasher5WriteEm
libpeercoinconsensus.so.0:_ZN10CSipHasherC1Emm
libpeercoinconsensus.so.0:_ZN10CSipHasherC2Emm
libpeercoinconsensus.so.0:_ZN11sha256_sse49TransformEPjPKhm
libpeercoinconsensus.so.0:_ZN12CHMAC_SHA2568FinalizeEPh
libpeercoinconsensus.so.0:_ZN12CHMAC_SHA256C1EPKhm
libpeercoinconsensus.so.0:_ZN12CHMAC_SHA256C2EPKhm
libpeercoinconsensus.so.0:_ZN12CHMAC_SHA5128FinalizeEPh
libpeercoinconsensus.so.0:_ZN12CHMAC_SHA512C1EPKhm
libpeercoinconsensus.so.0:_ZN12CHMAC_SHA512C2EPKhm
libpeercoinconsensus.so.0:_ZN12CTransactionC1EO19CMutableTransaction
libpeercoinconsensus.so.0:_ZN12CTransactionC1ERK19CMutableTransaction
libpeercoinconsensus.so.0:_ZN12CTransactionC1Ev
libpeercoinconsensus.so.0:_ZN12CTransactionC2EO19CMutableTransaction
libpeercoinconsensus.so.0:_ZN12CTransactionC2ERK19CMutableTransaction
libpeercoinconsensus.so.0:_ZN12CTransactionC2Ev
libpeercoinconsensus.so.0:_ZN13AES128DecryptC1EPKh
libpeercoinconsensus.so.0:_ZN13AES128DecryptC2EPKh
libpeercoinconsensus.so.0:_ZN13AES128DecryptD1Ev
libpeercoinconsensus.so.0:_ZN13AES128DecryptD2Ev
libpeercoinconsensus.so.0:_ZN13AES128EncryptC1EPKh
libpeercoinconsensus.so.0:_ZN13AES128EncryptC2EPKh
libpeercoinconsensus.so.0:_ZN13AES128EncryptD1Ev
libpeercoinconsensus.so.0:_ZN13AES128EncryptD2Ev
libpeercoinconsensus.so.0:_ZN13AES256DecryptC1EPKh
libpeercoinconsensus.so.0:_ZN13AES256DecryptC2EPKh
libpeercoinconsensus.so.0:_ZN13AES256DecryptD1Ev
libpeercoinconsensus.so.0:_ZN13AES256DecryptD2Ev
libpeercoinconsensus.so.0:_ZN13AES256EncryptC1EPKh
libpeercoinconsensus.so.0:_ZN13AES256EncryptC2EPKh
libpeercoinconsensus.so.0:_ZN13AES256EncryptD1Ev
libpeercoinconsensus.so.0:_ZN13AES256EncryptD2Ev
libpeercoinconsensus.so.0:_ZN13arith_uint25610SetCompactEjPbS0_
libpeercoinconsensus.so.0:_ZN15ECCVerifyHandleC1Ev
libpeercoinconsensus.so.0:_ZN15ECCVerifyHandleC2Ev
libpeercoinconsensus.so.0:_ZN15ECCVerifyHandleD1Ev
libpeercoinconsensus.so.0:_ZN15ECCVerifyHandleD2Ev
libpeercoinconsensus.so.0:_ZN16AES128CBCDecryptC1EPKhS1_b
libpeercoinconsensus.so.0:_ZN16AES128CBCDecryptC2EPKhS1_b
libpeercoinconsensus.so.0:_ZN16AES128CBCDecryptD1Ev
libpeercoinconsensus.so.0:_ZN16AES128CBCDecryptD2Ev
libpeercoinconsensus.so.0:_ZN16AES128CBCEncryptC1EPKhS1_b
libpeercoinconsensus.so.0:_ZN16AES128CBCEncryptC2EPKhS1_b
libpeercoinconsensus.so.0:_ZN16AES128CBCEncryptD1Ev
libpeercoinconsensus.so.0:_ZN16AES128CBCEncryptD2Ev
libpeercoinconsensus.so.0:_ZN16AES256CBCDecryptC1EPKhS1_b
libpeercoinconsensus.so.0:_ZN16AES256CBCDecryptC2EPKhS1_b
libpeercoinconsensus.so.0:_ZN16AES256CBCDecryptD1Ev
libpeercoinconsensus.so.0:_ZN16AES256CBCDecryptD2Ev
libpeercoinconsensus.so.0:_ZN16AES256CBCEncryptC1EPKhS1_b
libpeercoinconsensus.so.0:_ZN16AES256CBCEncryptC2EPKhS1_b
libpeercoinconsensus.so.0:_ZN16AES256CBCEncryptD1Ev
libpeercoinconsensus.so.0:_ZN16AES256CBCEncryptD2Ev
libpeercoinconsensus.so.0:_ZN19CMutableTransactionC1ERK12CTransaction
libpeercoinconsensus.so.0:_ZN19CMutableTransactionC1Ev
libpeercoinconsensus.so.0:_ZN19CMutableTransactionC2ERK12CTransaction
libpeercoinconsensus.so.0:_ZN19CMutableTransactionC2Ev
libpeercoinconsensus.so.0:_ZN26PrecomputedTransactionDataC1ERK12CTransaction
libpeercoinconsensus.so.0:_ZN26PrecomputedTransactionDataC2ERK12CTransaction
libpeercoinconsensus.so.0:_ZN5CSHA15ResetEv
libpeercoinconsensus.so.0:_ZN5CSHA15WriteEPKhm
libpeercoinconsensus.so.0:_ZN5CSHA18FinalizeEPh
libpeercoinconsensus.so.0:_ZN5CSHA1C1Ev
libpeercoinconsensus.so.0:_ZN5CSHA1C2Ev
libpeercoinconsensus.so.0:_ZN5CTxInC1E7uint256j7CScriptj
libpeercoinconsensus.so.0:_ZN5CTxInC1E9COutPoint7CScriptj
libpeercoinconsensus.so.0:_ZN5CTxInC2E7uint256j7CScriptj
libpeercoinconsensus.so.0:_ZN5CTxInC2E9COutPoint7CScriptj
libpeercoinconsensus.so.0:_ZN6CTxOutC1ERKl7CScript
libpeercoinconsensus.so.0:_ZN6CTxOutC2ERKl7CScript
libpeercoinconsensus.so.0:_ZN7CPubKey10DecompressEv
libpeercoinconsensus.so.0:_ZN7CPubKey14RecoverCompactERK7uint256RKSt6vectorIhSaIhEE
libpeercoinconsensus.so.0:_ZN7CPubKey9CheckLowSERKSt6vectorIhSaIhEE
libpeercoinconsensus.so.0:_ZN7CSHA2565ResetEv
libpeercoinconsensus.so.0:_ZN7CSHA2565WriteEPKhm
libpeercoinconsensus.so.0:_ZN7CSHA2568FinalizeEPh
libpeercoinconsensus.so.0:_ZN7CSHA256C1Ev
libpeercoinconsensus.so.0:_ZN7CSHA256C2Ev
libpeercoinconsensus.so.0:_ZN7CSHA5125ResetEv
libpeercoinconsensus.so.0:_ZN7CSHA5125WriteEPKhm
libpeercoinconsensus.so.0:_ZN7CSHA5128FinalizeEPh
libpeercoinconsensus.so.0:_ZN7CSHA512C1Ev
libpeercoinconsensus.so.0:_ZN7CSHA512C2Ev
libpeercoinconsensus.so.0:_ZN7CScript11SetMultisigEiRKSt6vectorI7CPubKeySaIS1_EE
libpeercoinconsensus.so.0:_ZN8ChaCha204SeekEm
libpeercoinconsensus.so.0:_ZN8ChaCha205SetIVEm
libpeercoinconsensus.so.0:_ZN8ChaCha206OutputEPhm
libpeercoinconsensus.so.0:_ZN8ChaCha206SetKeyEPKhm
libpeercoinconsensus.so.0:_ZN8ChaCha20C1EPKhm
libpeercoinconsensus.so.0:_ZN8ChaCha20C1Ev
libpeercoinconsensus.so.0:_ZN8ChaCha20C2EPKhm
libpeercoinconsensus.so.0:_ZN8ChaCha20C2Ev
libpeercoinconsensus.so.0:_ZNK10CExtPubKey6DeriveERS_j
libpeercoinconsensus.so.0:_ZNK10CExtPubKey6EncodeEPh
libpeercoinconsensus.so.0:_ZNK10CSipHasher8FinalizeEv
libpeercoinconsensus.so.0:_ZNK12CBlockHeader7GetHashEv
libpeercoinconsensus.so.0:_ZNK12CTransaction11ComputeHashEv
libpeercoinconsensus.so.0:_ZNK12CTransaction11GetValueOutEv
libpeercoinconsensus.so.0:_ZNK12CTransaction12GetTotalSizeEv
libpeercoinconsensus.so.0:_ZNK12CTransaction14GetWitnessHashEv
libpeercoinconsensus.so.0:_ZNK12CTransaction8ToStringB5cxx11Ev
libpeercoinconsensus.so.0:_ZNK13AES128Decrypt7DecryptEPhPKh
libpeercoinconsensus.so.0:_ZNK13AES128Encrypt7EncryptEPhPKh
libpeercoinconsensus.so.0:_ZNK13AES256Decrypt7DecryptEPhPKh
libpeercoinconsensus.so.0:_ZNK13AES256Encrypt7EncryptEPhPKh
libpeercoinconsensus.so.0:_ZNK13arith_uint25610GetCompactEb
libpeercoinconsensus.so.0:_ZNK14CScriptWitness8ToStringB5cxx11Ev
libpeercoinconsensus.so.0:_ZNK16AES128CBCDecrypt7DecryptEPKhiPh
libpeercoinconsensus.so.0:_ZNK16AES128CBCEncrypt7EncryptEPKhiPh
libpeercoinconsensus.so.0:_ZNK16AES256CBCDecrypt7DecryptEPKhiPh
libpeercoinconsensus.so.0:_ZNK16AES256CBCEncrypt7EncryptEPKhiPh
libpeercoinconsensus.so.0:_ZNK19CMutableTransaction7GetHashEv
libpeercoinconsensus.so.0:_ZNK27TransactionSignatureChecker13CheckLockTimeERK10CScriptNum
libpeercoinconsensus.so.0:_ZNK27TransactionSignatureChecker13CheckSequenceERK10CScriptNum
libpeercoinconsensus.so.0:_ZNK27TransactionSignatureChecker15VerifySignatureERKSt6vectorIhSaIhEERK7CPubKeyRK7uint256
libpeercoinconsensus.so.0:_ZNK27TransactionSignatureChecker8CheckSigERKSt6vectorIhSaIhEES4_RK7CScript10SigVersion
libpeercoinconsensus.so.0:_ZNK5CTxIn8ToStringB5cxx11Ev
libpeercoinconsensus.so.0:_ZNK6CBlock8ToStringB5cxx11Ev
libpeercoinconsensus.so.0:_ZNK6CTxOut8ToStringB5cxx11Ev
libpeercoinconsensus.so.0:_ZNK7CPubKey12IsFullyValidEv
libpeercoinconsensus.so.0:_ZNK7CPubKey6DeriveERS_R7uint256jRKS1_
libpeercoinconsensus.so.0:_ZNK7CPubKey6VerifyERK7uint256RKSt6vectorIhSaIhEE
libpeercoinconsensus.so.0:_ZNK7CScript10IsPushOnlyEN9prevectorILj28EhjiE14const_iteratorE
libpeercoinconsensus.so.0:_ZNK7CScript10IsPushOnlyEv
libpeercoinconsensus.so.0:_ZNK7CScript11HasValidOpsEv
libpeercoinconsensus.so.0:_ZNK7CScript13GetSigOpCountERKS_
libpeercoinconsensus.so.0:_ZNK7CScript13GetSigOpCountEb
libpeercoinconsensus.so.0:_ZNK7CScript16IsWitnessProgramERiRSt6vectorIhSaIhEE
libpeercoinconsensus.so.0:_ZNK7CScript17IsPayToScriptHashEv
libpeercoinconsensus.so.0:_ZNK7CScript24IsPayToWitnessScriptHashEv
libpeercoinconsensus.so.0:_ZNK9COutPoint8ToStringB5cxx11Ev
libpeercoinconsensus.so.0:bitcoinconsensus_verify_script
libpeercoinconsensus.so.0:bitcoinconsensus_verify_script_with_amount
libpeercoinconsensus.so.0:bitcoinconsensus_version
libpeercoinconsensus.so.0:secp256k1_context_clone
libpeercoinconsensus.so.0:secp256k1_context_create
libpeercoinconsensus.so.0:secp256k1_context_destroy
libpeercoinconsensus.so.0:secp256k1_context_randomize
libpeercoinconsensus.so.0:secp256k1_context_set_error_callback
libpeercoinconsensus.so.0:secp256k1_context_set_illegal_callback
libpeercoinconsensus.so.0:secp256k1_ec_privkey_negate
libpeercoinconsensus.so.0:secp256k1_ec_privkey_tweak_add
libpeercoinconsensus.so.0:secp256k1_ec_privkey_tweak_mul
libpeercoinconsensus.so.0:secp256k1_ec_pubkey_combine
libpeercoinconsensus.so.0:secp256k1_ec_pubkey_create
libpeercoinconsensus.so.0:secp256k1_ec_pubkey_negate
libpeercoinconsensus.so.0:secp256k1_ec_pubkey_parse
libpeercoinconsensus.so.0:secp256k1_ec_pubkey_serialize
libpeercoinconsensus.so.0:secp256k1_ec_pubkey_tweak_add
libpeercoinconsensus.so.0:secp256k1_ec_pubkey_tweak_mul
libpeercoinconsensus.so.0:secp256k1_ec_seckey_verify
libpeercoinconsensus.so.0:secp256k1_ecdsa_recover
libpeercoinconsensus.so.0:secp256k1_ecdsa_recoverable_signature_convert
libpeercoinconsensus.so.0:secp256k1_ecdsa_recoverable_signature_parse_compact
libpeercoinconsensus.so.0:secp256k1_ecdsa_recoverable_signature_serialize_compact
libpeercoinconsensus.so.0:secp256k1_ecdsa_sign
libpeercoinconsensus.so.0:secp256k1_ecdsa_sign_recoverable
libpeercoinconsensus.so.0:secp256k1_ecdsa_signature_normalize
libpeercoinconsensus.so.0:secp256k1_ecdsa_signature_parse_compact
libpeercoinconsensus.so.0:secp256k1_ecdsa_signature_parse_der
libpeercoinconsensus.so.0:secp256k1_ecdsa_signature_serialize_compact
libpeercoinconsensus.so.0:secp256k1_ecdsa_signature_serialize_der
libpeercoinconsensus.so.0:secp256k1_ecdsa_verify
